target datalayout = "e-m:e-p270:32:32-p271:32:32-p272:64:64-i64:64-i128:128-f80:128-n8:16:32:64-S128"
target triple = "x86_64-unknown-linux-gnu"

%"class.std::__cxx11::basic_string" = type { %"struct.std::__cxx11::basic_string<char>::_Alloc_hider", i64, %union.anon }
%"struct.std::__cxx11::basic_string<char>::_Alloc_hider" = type { ptr }
%union.anon = type { i64, [8 x i8] }
%"class.(anonymous namespace)::CUnescapeTest" = type { %"class.testing::Test", %"class.std::__cxx11::basic_string" }
%"class.testing::Test" = type { ptr, %"class.std::unique_ptr" }
%"class.std::unique_ptr" = type { %"struct.std::__uniq_ptr_data" }
%"struct.std::__uniq_ptr_data" = type { %"class.std::__uniq_ptr_impl" }
%"class.std::__uniq_ptr_impl" = type { %"class.std::tuple" }
%"class.std::tuple" = type { %"struct.std::_Tuple_impl" }
%"struct.std::_Tuple_impl" = type { %"struct.std::_Head_base.18" }
%"struct.std::_Head_base.18" = type { ptr }

; Function Attrs: mustprogress nounwind uwtable
define internal void @_ZN12_GLOBAL__N_113CUnescapeTestD2Ev(ptr noundef nonnull align 8 dereferenceable(48) %this) unnamed_addr #7 align 2 {
entry:
  %this.addr = alloca ptr, align 8
  store ptr %this, ptr %this.addr, align 8
  %this1 = load ptr, ptr %this.addr, align 8
  store ptr getelementptr inbounds ({ [8 x ptr] }, ptr @_ZTVN12_GLOBAL__N_113CUnescapeTestE, i32 0, i32 0, i32 2), ptr %this1, align 8
  %result_string_ = getelementptr inbounds %"class.(anonymous namespace)::CUnescapeTest", ptr %this1, i32 0, i32 1
  call void @_ZNSt7__cxx1112basic_stringIcSt11char_traitsIcESaIcEED1Ev(ptr noundef nonnull align 8 dereferenceable(32) %result_string_) #3
  call void @_ZN7testing4TestD2Ev(ptr noundef nonnull align 8 dereferenceable(16) %this1) #3
  ret void
}

; Function Attrs: mustprogress nounwind uwtable
define internal void @_ZN12_GLOBAL__N_144CUnescapeTest_Unescapes4CharUnicodeNull_TestD2Ev(ptr noundef nonnull align 8 dereferenceable(48) %this) unnamed_addr #7 align 2 {
entry:
  %this.addr = alloca ptr, align 8
  store ptr %this, ptr %this.addr, align 8
  %this1 = load ptr, ptr %this.addr, align 8
  call void @_ZN12_GLOBAL__N_113CUnescapeTestD2Ev(ptr noundef nonnull align 8 dereferenceable(48) %this1) #3
  ret void
}

; Function Attrs: mustprogress nounwind uwtable
define internal void @_ZN12_GLOBAL__N_144CUnescapeTest_Unescapes4CharUnicodeNull_TestD0Ev(ptr noundef nonnull align 8 dereferenceable(48) %this) unnamed_addr #7 align 2 {
entry:
  %this.addr = alloca ptr, align 8
  store ptr %this, ptr %this.addr, align 8
  %this1 = load ptr, ptr %this.addr, align 8
  call void @_ZN12_GLOBAL__N_144CUnescapeTest_Unescapes4CharUnicodeNull_TestD2Ev(ptr noundef nonnull align 8 dereferenceable(48) %this1) #3
  call void @_ZdlPv(ptr noundef %this1) #14
  ret void
}